; Function Attrs: mustprogress nounwind uwtable
define void @_ZN5osgeo4proj4util10BaseObjectD2Ev(ptr nocapture noundef nonnull align 8 dereferenceable(16) %0) unnamed_addr #1 align 2 personality ptr @__gxx_personality_v0 {
  store ptr getelementptr inbounds inrange(-16, 16) ({ [4 x ptr] }, ptr @_ZTVN5osgeo4proj4util10BaseObjectE, i64 0, i32 0, i64 2), ptr %0, align 8
  %2 = getelementptr inbounds i8, ptr %0, i64 8
  %3 = load ptr, ptr %2, align 8
  %.not.i = icmp eq ptr %3, null
  br i1 %.not.i, label %_ZNSt10unique_ptrIN5osgeo4proj4util10BaseObject7PrivateESt14default_deleteIS4_EED2Ev.exit, label %4

4:                                                ; preds = %1
  %5 = getelementptr inbounds i8, ptr %3, i64 8
  %6 = load ptr, ptr %5, align 8
  %.not.i.i.i.i.i.i = icmp eq ptr %6, null
  br i1 %.not.i.i.i.i.i.i, label %_ZNKSt14default_deleteIN5osgeo4proj4util10BaseObject7PrivateEEclEPS4_.exit.i, label %7

7:                                                ; preds = %4
  %8 = getelementptr inbounds i8, ptr %6, i64 12
  %9 = load i8, ptr @__libc_single_threaded, align 1
  %.not.i.i.i.i.i.i.i = icmp eq i8 %9, 0
  br i1 %.not.i.i.i.i.i.i.i, label %13, label %10

10:                                               ; preds = %7
  %11 = load i32, ptr %8, align 4
  %12 = add nsw i32 %11, -1
  store i32 %12, ptr %8, align 4
  br label %15

13:                                               ; preds = %7
  %14 = atomicrmw volatile add ptr %8, i32 -1 acq_rel, align 4
  br label %15

15:                                               ; preds = %13, %10
  %.0.i.i.i.i.i.i.i = phi i32 [ %11, %10 ], [ %14, %13 ]
  %16 = icmp eq i32 %.0.i.i.i.i.i.i.i, 1
  br i1 %16, label %17, label %_ZNKSt14default_deleteIN5osgeo4proj4util10BaseObject7PrivateEEclEPS4_.exit.i

17:                                               ; preds = %15
  %18 = load ptr, ptr %6, align 8
  %19 = getelementptr inbounds i8, ptr %18, i64 24
  %20 = load ptr, ptr %19, align 8
  tail call void %20(ptr noundef nonnull align 8 dereferenceable(16) %6) #24
  br label %_ZNKSt14default_deleteIN5osgeo4proj4util10BaseObject7PrivateEEclEPS4_.exit.i

_ZNKSt14default_deleteIN5osgeo4proj4util10BaseObject7PrivateEEclEPS4_.exit.i: ; preds = %17, %15, %4
  tail call void @_ZdlPv(ptr noundef nonnull %3) #25
  br label %_ZNSt10unique_ptrIN5osgeo4proj4util10BaseObject7PrivateESt14default_deleteIS4_EED2Ev.exit

_ZNSt10unique_ptrIN5osgeo4proj4util10BaseObject7PrivateESt14default_deleteIS4_EED2Ev.exit: ; preds = %1, %_ZNKSt14default_deleteIN5osgeo4proj4util10BaseObject7PrivateEEclEPS4_.exit.i
  store ptr null, ptr %2, align 8
  ret void
}